Certificate:
    Data:
        Version: 3 (0x2)
        Serial Number: 1 (0x1)
    Signature Algorithm: sha1WithRSAEncryption
        Issuer: C=BR, ST=Santa Catarina, L=Joinville, O=Infomant, OU=Development, CN=rafael/emailAddress=rafael.dalosto@informant.com.br
        Validity
            Not Before: Feb 14 19:29:45 2014 GMT
            Not After : Feb 14 19:29:45 2015 GMT
        Subject: C=BR, ST=Joinville, L=Santa Catarina, O=Informant, OU=Development, CN=rafael/emailAddress=rafael.dalosto@informant.com.br
        Subject Public Key Info:
            Public Key Algorithm: rsaEncryption
                Public-Key: (2048 bit)
                Modulus:
                    00:b2:1b:4d:52:4c:f4:86:d0:9c:c4:93:d5:4b:64:
                    1e:07:d9:7b:36:a2:f3:ab:8b:44:f7:08:37:b1:af:
                    7f:eb:37:c8:05:7c:62:c5:78:83:df:92:21:fd:4a:
                    2d:da:c0:dc:e4:4d:6a:9b:bc:99:51:16:a4:6a:a8:
                    72:ab:f1:1b:a0:61:a0:b4:4b:93:41:2a:7c:87:89:
                    bd:e7:bd:89:b3:80:fb:3a:47:06:50:c0:cb:de:da:
                    39:b4:15:c8:11:76:4d:44:e4:be:68:ee:cc:07:39:
                    7d:e0:ab:bc:0d:73:1e:10:4c:36:d5:75:c0:68:82:
                    df:87:a9:fc:bf:9f:fd:fa:9e:b4:f2:7d:2d:53:31:
                    50:74:3e:73:44:8c:42:fd:23:25:9f:0d:c6:1f:1a:
                    74:14:a3:be:d8:e6:f3:44:be:d6:19:52:b3:13:1a:
                    59:42:28:dd:4e:d8:9d:fb:80:71:cd:e4:71:f6:67:
                    7a:61:ce:f8:17:03:27:60:ce:94:00:0a:90:dd:d1:
                    31:bb:fc:b7:04:1e:d0:29:1e:d4:28:14:de:d1:5a:
                    10:2e:d6:b6:3d:f0:c3:8e:88:2e:56:25:8f:5a:05:
                    1a:96:f0:5b:a7:27:83:1d:87:bb:d1:8b:2f:0b:e4:
                    b3:09:6e:5f:59:dd:b0:0f:2c:93:52:41:ff:cd:63:
                    e2:6f
                Exponent: 65537 (0x10001)
        X509v3 extensions:
            X509v3 Basic Constraints: 
                CA:FALSE
            Netscape Comment: 
                OpenSSL Generated Certificate
            X509v3 Subject Key Identifier: 
                28:AC:76:48:C4:35:54:63:26:FC:A5:31:0F:D7:2F:BB:B2:3D:08:4B
            X509v3 Authority Key Identifier: 
                keyid:98:34:94:AB:30:46:17:47:5F:CA:2E:B1:4D:3D:62:B2:A5:55:A1:EE

    Signature Algorithm: sha1WithRSAEncryption
         0f:30:56:4e:ba:c3:ba:fc:36:2b:83:95:a2:08:0b:27:e0:82:
         d6:19:bc:99:4d:9a:c4:0f:c7:9a:e1:1f:f9:a2:74:70:7c:59:
         d0:37:cc:c3:d7:8c:e6:fe:b5:69:87:2e:d1:15:ac:c5:b4:31:
         c8:73:7c:e4:df:63:bd:61:d2:d6:aa:06:6f:9c:a5:86:20:81:
         28:85:04:4f:fa:b3:4b:00:84:c0:9f:b1:f9:5c:d7:3b:13:cd:
         30:f9:61:70:30:e8:33:2a:5b:ee:38:20:91:fe:8e:03:6c:06:
         67:4d:35:39:d1:c2:20:2f:20:89:e3:ef:ed:81:40:9c:ca:e8:
         28:96
-----BEGIN CERTIFICATE-----
MIIDwDCCAymgAwIBAgIBATANBgkqhkiG9w0BAQUFADCBpDELMAkGA1UEBhMCQlIx
FzAVBgNVBAgMDlNhbnRhIENhdGFyaW5hMRIwEAYDVQQHDAlKb2ludmlsbGUxETAP
BgNVBAoMCEluZm9tYW50MRQwEgYDVQQLDAtEZXZlbG9wbWVudDEPMA0GA1UEAwwG
cmFmYWVsMS4wLAYJKoZIhvcNAQkBFh9yYWZhZWwuZGFsb3N0b0BpbmZvcm1hbnQu
Y29tLmJyMB4XDTE0MDIxNDE5Mjk0NVoXDTE1MDIxNDE5Mjk0NVowgaUxCzAJBgNV
BAYTAkJSMRIwEAYDVQQIDAlKb2ludmlsbGUxFzAVBgNVBAcMDlNhbnRhIENhdGFy
aW5hMRIwEAYDVQQKDAlJbmZvcm1hbnQxFDASBgNVBAsMC0RldmVsb3BtZW50MQ8w
DQYDVQQDDAZyYWZhZWwxLjAsBgkqhkiG9w0BCQEWH3JhZmFlbC5kYWxvc3RvQGlu
Zm9ybWFudC5jb20uYnIwggEiMA0GCSqGSIb3DQEBAQUAA4IBDwAwggEKAoIBAQCy
G01STPSG0JzEk9VLZB4H2Xs2ovOri0T3CDexr3/rN8gFfGLFeIPfkiH9Si3awNzk
TWqbvJlRFqRqqHKr8RugYaC0S5NBKnyHib3nvYmzgPs6RwZQwMve2jm0FcgRdk1E
5L5o7swHOX3gq7wNcx4QTDbVdcBogt+Hqfy/n/36nrTyfS1TMVB0PnNEjEL9IyWf
DcYfGnQUo77Y5vNEvtYZUrMTGllCKN1O2J37gHHN5HH2Z3phzvgXAydgzpQACpDd
0TG7/LcEHtApHtQoFN7RWhAu1rY98MOOiC5WJY9aBRqW8FunJ4Mdh7vRiy8L5LMJ
bl9Z3bAPLJNSQf/NY+JvAgMBAAGjezB5MAkGA1UdEwQCMAAwLAYJYIZIAYb4QgEN
BB8WHU9wZW5TU0wgR2VuZXJhdGVkIENlcnRpZmljYXRlMB0GA1UdDgQWBBQorHZI
xDVUYyb8pTEP1y+7sj0ISzAfBgNVHSMEGDAWgBSYNJSrMEYXR1/KLrFNPWKypVWh
7jANBgkqhkiG9w0BAQUFAAOBgQAPMFZOusO6/DYrg5WiCAsn4ILWGbyZTZrED8ea
4R/5onRwfFnQN8zD14zm/rVphy7RFazFtDHIc3zk32O9YdLWqgZvnKWGIIEohQRP
+rNLAITAn7H5XNc7E80w+WFwMOgzKlvuOCCR/o4DbAZnTTU50cIgLyCJ4+/tgUCc
yugolg==
-----END CERTIFICATE-----
