Certificate:
    Data:
        Version: 3 (0x2)
        Serial Number: 2 (0x2)
    Signature Algorithm: sha1WithRSAEncryption
        Issuer: C=BR, ST=Santa Catarina, L=Joinville, O=Informant, OU=Development, CN=rafael/emailAddress=rafael.dalosto@informant.com.br
        Validity
            Not Before: Feb 14 11:52:27 2014 GMT
            Not After : Feb 14 11:52:27 2015 GMT
        Subject: C=BR, ST=Santa Catarina, L=Joinville, O=Informant, OU=Development, CN=rafael/emailAddress=rafael.dalosto@informant.com.br
        Subject Public Key Info:
            Public Key Algorithm: rsaEncryption
                Public-Key: (2048 bit)
                Modulus:
                    00:b4:fb:fa:24:32:99:68:2b:70:bc:e0:8a:ef:86:
                    f0:b0:ed:51:56:7a:77:38:2c:6f:24:19:1f:63:f6:
                    11:ff:5d:1e:67:1d:1e:a9:fb:a0:1b:36:46:31:78:
                    9b:2a:cf:05:88:e4:4a:67:e2:3c:70:7f:28:19:43:
                    58:87:54:83:5b:a2:07:78:b1:6e:69:fc:1b:76:77:
                    ab:6e:12:74:2f:b6:82:2b:9b:ba:7f:4f:81:ad:0d:
                    f8:ea:66:12:b9:b1:e4:90:1d:f1:9e:fb:55:54:9c:
                    3d:c6:94:24:3b:6b:20:a2:75:b0:e3:d0:b8:e2:16:
                    f1:c2:bd:a4:7a:47:81:8b:9a:8a:c1:87:e8:62:e9:
                    14:d9:4c:f3:4e:bc:8e:af:f1:4b:aa:95:67:a8:1d:
                    f7:fe:87:ca:e5:93:14:6f:40:64:1f:08:35:b3:20:
                    e7:89:cc:fb:5f:5b:73:4f:9e:a1:fc:31:c4:81:9d:
                    25:c2:bc:9c:6f:48:d3:ed:e0:1a:a1:c0:95:00:ae:
                    69:76:25:3b:93:a4:46:26:59:e4:a7:99:d7:16:59:
                    72:06:20:3b:b4:be:c5:03:47:23:74:b9:92:5c:54:
                    f3:ff:33:d6:24:79:0e:4b:14:7b:5f:8f:5c:fe:4f:
                    af:c3:ac:7c:79:70:e2:94:1a:d9:8b:d3:c4:fd:8e:
                    8c:61
                Exponent: 65537 (0x10001)
        X509v3 extensions:
            X509v3 Basic Constraints: 
                CA:FALSE
            Netscape Comment: 
                OpenSSL Generated Certificate
            X509v3 Subject Key Identifier: 
                38:1A:3C:56:EE:56:95:21:B8:FB:66:43:BF:63:80:9E:1A:C1:40:8E
            X509v3 Authority Key Identifier: 
                keyid:DC:44:40:8C:36:40:47:DC:E8:65:7D:54:6F:09:74:48:E2:23:14:FB

    Signature Algorithm: sha1WithRSAEncryption
         7d:40:7c:0b:84:01:bf:02:f8:54:ba:29:a5:ca:c5:d7:ea:66:
         6d:f4:fa:49:7a:ec:4c:d2:35:88:11:7d:cd:ed:5b:c0:ce:5a:
         a0:d1:3e:7c:4b:5c:19:7a:ad:31:72:2f:1f:65:9f:db:e1:fb:
         34:0b:ba:ed:38:df:b9:e0:b1:ea:60:97:f4:7a:30:05:a7:21:
         1e:cc:1f:1b:00:62:5a:54:f8:fa:96:27:5b:d0:95:9a:2c:95:
         d0:21:9d:05:65:94:be:79:b4:af:c2:93:4e:46:fe:a8:83:58:
         85:77:d2:c4:a4:34:4a:21:6c:2a:f5:e8:2c:bf:04:31:96:3c:
         ee:9d
-----BEGIN CERTIFICATE-----
MIIDwTCCAyqgAwIBAgIBAjANBgkqhkiG9w0BAQUFADCBpTELMAkGA1UEBhMCQlIx
FzAVBgNVBAgMDlNhbnRhIENhdGFyaW5hMRIwEAYDVQQHDAlKb2ludmlsbGUxEjAQ
BgNVBAoMCUluZm9ybWFudDEUMBIGA1UECwwLRGV2ZWxvcG1lbnQxDzANBgNVBAMM
BnJhZmFlbDEuMCwGCSqGSIb3DQEJARYfcmFmYWVsLmRhbG9zdG9AaW5mb3JtYW50
LmNvbS5icjAeFw0xNDAyMTQxMTUyMjdaFw0xNTAyMTQxMTUyMjdaMIGlMQswCQYD
VQQGEwJCUjEXMBUGA1UECAwOU2FudGEgQ2F0YXJpbmExEjAQBgNVBAcMCUpvaW52
aWxsZTESMBAGA1UECgwJSW5mb3JtYW50MRQwEgYDVQQLDAtEZXZlbG9wbWVudDEP
MA0GA1UEAwwGcmFmYWVsMS4wLAYJKoZIhvcNAQkBFh9yYWZhZWwuZGFsb3N0b0Bp
bmZvcm1hbnQuY29tLmJyMIIBIjANBgkqhkiG9w0BAQEFAAOCAQ8AMIIBCgKCAQEA
tPv6JDKZaCtwvOCK74bwsO1RVnp3OCxvJBkfY/YR/10eZx0eqfugGzZGMXibKs8F
iORKZ+I8cH8oGUNYh1SDW6IHeLFuafwbdnerbhJ0L7aCK5u6f0+BrQ346mYSubHk
kB3xnvtVVJw9xpQkO2sgonWw49C44hbxwr2kekeBi5qKwYfoYukU2UzzTryOr/FL
qpVnqB33/ofK5ZMUb0BkHwg1syDnicz7X1tzT56h/DHEgZ0lwrycb0jT7eAaocCV
AK5pdiU7k6RGJlnkp5nXFllyBiA7tL7FA0cjdLmSXFTz/zPWJHkOSxR7X49c/k+v
w6x8eXDilBrZi9PE/Y6MYQIDAQABo3sweTAJBgNVHRMEAjAAMCwGCWCGSAGG+EIB
DQQfFh1PcGVuU1NMIEdlbmVyYXRlZCBDZXJ0aWZpY2F0ZTAdBgNVHQ4EFgQUOBo8
Vu5WlSG4+2ZDv2OAnhrBQI4wHwYDVR0jBBgwFoAU3ERAjDZAR9zoZX1Ubwl0SOIj
FPswDQYJKoZIhvcNAQEFBQADgYEAfUB8C4QBvwL4VLoppcrF1+pmbfT6SXrsTNI1
iBF9ze1bwM5aoNE+fEtcGXqtMXIvH2Wf2+H7NAu67TjfueCx6mCX9HowBachHswf
GwBiWlT4+pYnW9CVmiyV0CGdBWWUvnm0r8KTTkb+qINYhXfSxKQ0SiFsKvXoLL8E
MZY87p0=
-----END CERTIFICATE-----
