Certificate:
    Data:
        Version: 3 (0x2)
        Serial Number: 1 (0x1)
    Signature Algorithm: sha1WithRSAEncryption
        Issuer: C=BR, ST=Santa Catarina, L=Joinville, O=Informant, OU=Development, CN=rafael/emailAddress=rafael.dalosto@informant.com.br
        Validity
            Not Before: Feb 14 11:46:36 2014 GMT
            Not After : Feb 14 11:46:36 2015 GMT
        Subject: C=BR, ST=Santa Catarina, O=Informant, OU=Development, CN=localhost/emailAddress=rafael.dalosto@informant.com.br
        Subject Public Key Info:
            Public Key Algorithm: rsaEncryption
                Public-Key: (2048 bit)
                Modulus:
                    00:c0:94:ac:34:8a:33:38:5d:7b:7b:8a:61:70:7c:
                    1f:ad:03:ee:d8:b4:ad:6c:30:13:bf:97:a5:74:db:
                    ab:5d:50:d5:7d:58:60:39:10:a1:7d:26:4f:f9:58:
                    b4:c3:21:c8:16:54:fd:93:b3:10:a6:8b:11:00:f8:
                    e7:68:93:77:61:80:ea:8f:48:78:48:34:4e:17:fb:
                    8e:a7:9c:f8:1a:f3:77:d9:75:07:2e:06:7e:00:ef:
                    2e:4b:bd:9e:3c:61:18:0a:7e:f8:2e:4c:78:a8:7b:
                    b9:c5:91:10:51:6a:eb:f9:e2:f9:5b:42:ab:47:ef:
                    48:e8:d4:53:28:da:b8:b8:97:c0:ed:54:a0:2f:e3:
                    57:f7:bf:0d:bf:1c:09:40:b9:26:c9:1a:04:81:4b:
                    d5:63:fc:de:d2:02:bc:01:be:88:19:1c:e7:3c:69:
                    59:17:b9:83:13:5e:46:56:b2:78:51:0a:9d:56:64:
                    99:9e:c3:c6:b4:d6:ef:c6:dc:ae:c6:72:4d:02:df:
                    9c:c9:a6:c5:0d:1e:70:51:51:a8:ff:6b:d7:cf:4b:
                    db:69:e4:bd:e6:71:af:28:7e:9f:81:5a:a5:9c:03:
                    e7:ff:51:70:9e:b2:45:b6:03:72:4a:a4:6d:19:f6:
                    4b:fd:bc:5e:23:20:8b:25:6f:01:8c:b5:7c:6c:a7:
                    ff:ad
                Exponent: 65537 (0x10001)
        X509v3 extensions:
            X509v3 Basic Constraints: 
                CA:FALSE
            Netscape Comment: 
                OpenSSL Generated Certificate
            X509v3 Subject Key Identifier: 
                B0:24:DA:C3:0D:70:86:6C:B0:F7:98:58:09:C6:82:63:88:8E:50:2E
            X509v3 Authority Key Identifier: 
                keyid:DC:44:40:8C:36:40:47:DC:E8:65:7D:54:6F:09:74:48:E2:23:14:FB

    Signature Algorithm: sha1WithRSAEncryption
         39:0f:16:c0:6d:0b:6f:87:68:83:d7:9c:98:98:c0:38:3b:e9:
         83:e5:03:b0:a4:cd:5f:3a:d6:10:f2:14:2f:9f:4c:0b:b9:0f:
         4a:a6:22:07:2a:aa:b4:f8:96:b0:57:b7:c9:63:42:39:57:0a:
         61:ca:2a:0c:b3:82:8d:d8:ec:19:3a:0a:41:db:21:a0:c2:70:
         8b:07:b8:70:41:f9:a8:47:36:07:9c:ed:81:90:6a:95:9e:a8:
         ce:3e:12:50:66:a5:7c:ee:1d:a7:d1:1d:ac:bf:7d:ea:a2:15:
         07:da:7c:33:84:01:12:ab:ec:2a:c9:0c:46:29:67:b6:60:9f:
         2c:38
-----BEGIN CERTIFICATE-----
MIIDsDCCAxmgAwIBAgIBATANBgkqhkiG9w0BAQUFADCBpTELMAkGA1UEBhMCQlIx
FzAVBgNVBAgMDlNhbnRhIENhdGFyaW5hMRIwEAYDVQQHDAlKb2ludmlsbGUxEjAQ
BgNVBAoMCUluZm9ybWFudDEUMBIGA1UECwwLRGV2ZWxvcG1lbnQxDzANBgNVBAMM
BnJhZmFlbDEuMCwGCSqGSIb3DQEJARYfcmFmYWVsLmRhbG9zdG9AaW5mb3JtYW50
LmNvbS5icjAeFw0xNDAyMTQxMTQ2MzZaFw0xNTAyMTQxMTQ2MzZaMIGUMQswCQYD
VQQGEwJCUjEXMBUGA1UECAwOU2FudGEgQ2F0YXJpbmExEjAQBgNVBAoMCUluZm9y
bWFudDEUMBIGA1UECwwLRGV2ZWxvcG1lbnQxEjAQBgNVBAMMCWxvY2FsaG9zdDEu
MCwGCSqGSIb3DQEJARYfcmFmYWVsLmRhbG9zdG9AaW5mb3JtYW50LmNvbS5icjCC
ASIwDQYJKoZIhvcNAQEBBQADggEPADCCAQoCggEBAMCUrDSKMzhde3uKYXB8H60D
7ti0rWwwE7+XpXTbq11Q1X1YYDkQoX0mT/lYtMMhyBZU/ZOzEKaLEQD452iTd2GA
6o9IeEg0Thf7jqec+Brzd9l1By4GfgDvLku9njxhGAp++C5MeKh7ucWREFFq6/ni
+VtCq0fvSOjUUyjauLiXwO1UoC/jV/e/Db8cCUC5JskaBIFL1WP83tICvAG+iBkc
5zxpWRe5gxNeRlayeFEKnVZkmZ7DxrTW78bcrsZyTQLfnMmmxQ0ecFFRqP9r189L
22nkveZxryh+n4FapZwD5/9RcJ6yRbYDckqkbRn2S/28XiMgiyVvAYy1fGyn/60C
AwEAAaN7MHkwCQYDVR0TBAIwADAsBglghkgBhvhCAQ0EHxYdT3BlblNTTCBHZW5l
cmF0ZWQgQ2VydGlmaWNhdGUwHQYDVR0OBBYEFLAk2sMNcIZssPeYWAnGgmOIjlAu
MB8GA1UdIwQYMBaAFNxEQIw2QEfc6GV9VG8JdEjiIxT7MA0GCSqGSIb3DQEBBQUA
A4GBADkPFsBtC2+HaIPXnJiYwDg76YPlA7CkzV861hDyFC+fTAu5D0qmIgcqqrT4
lrBXt8ljQjlXCmHKKgyzgo3Y7Bk6CkHbIaDCcIsHuHBB+ahHNgec7YGQapWeqM4+
ElBmpXzuHafRHay/feqiFQfafDOEARKr7CrJDEYpZ7Zgnyw4
-----END CERTIFICATE-----
