Certificate:
    Data:
        Version: 3 (0x2)
        Serial Number: 3 (0x3)
    Signature Algorithm: sha1WithRSAEncryption
        Issuer: C=BR, ST=Santa Catarina, L=Joinville, O=Informant, OU=Development, CN=rafael/emailAddress=rafael.dalosto@informant.com.br
        Validity
            Not Before: Feb 14 17:48:11 2014 GMT
            Not After : Feb 14 17:48:11 2015 GMT
        Subject: C=BR, ST=Santa Catarina, L=Joinville, O=Informant, OU=Development, CN=carlos.schneider/emailAddress=carlos.schneider@informant.com.br
        Subject Public Key Info:
            Public Key Algorithm: rsaEncryption
                Public-Key: (2048 bit)
                Modulus:
                    00:bd:bd:01:82:94:c2:b8:c8:32:0f:3e:28:16:20:
                    c8:e5:9f:8f:0b:3f:b6:7a:f0:db:f8:05:e7:58:46:
                    36:11:66:57:2a:a3:a5:3b:59:52:76:86:1f:7f:2a:
                    34:07:1b:f2:d4:e2:47:d9:94:79:b6:7f:82:ca:f9:
                    e8:e7:e9:4f:18:2d:8c:31:5f:e5:69:9c:54:95:78:
                    33:c7:18:47:f3:cf:48:75:fd:a7:20:d4:3a:fd:1d:
                    d1:2f:fe:a1:2c:54:9a:21:89:d3:4d:3d:04:7b:4b:
                    8b:8d:ea:b3:39:ba:a8:02:e9:d9:3a:2a:a4:50:d9:
                    1e:90:69:b9:0d:61:c7:63:b8:75:dc:b1:47:18:30:
                    ab:01:e6:7e:9a:86:78:0c:67:ce:b0:4a:e6:cd:73:
                    76:f8:73:18:0f:e1:2a:66:15:07:8c:38:42:2e:1b:
                    1b:7f:fa:96:21:be:de:b5:79:64:bf:7b:80:8a:7b:
                    2b:76:43:4e:a8:53:0f:46:65:21:af:7f:b1:43:59:
                    03:59:8d:f5:93:0f:64:e7:09:10:e0:ca:19:f9:48:
                    f9:ef:32:c1:47:78:03:21:83:2c:5a:26:55:90:81:
                    f4:13:a8:1a:40:d7:36:20:78:a5:c6:03:92:47:44:
                    d0:cb:8a:86:06:74:b0:f0:9a:b9:1e:bb:94:ed:bc:
                    0d:7d
                Exponent: 65537 (0x10001)
        X509v3 extensions:
            X509v3 Basic Constraints: 
                CA:FALSE
            Netscape Comment: 
                OpenSSL Generated Certificate
            X509v3 Subject Key Identifier: 
                40:34:21:43:D5:18:26:91:AA:15:A7:90:29:42:4B:ED:92:1A:A6:37
            X509v3 Authority Key Identifier: 
                keyid:DC:44:40:8C:36:40:47:DC:E8:65:7D:54:6F:09:74:48:E2:23:14:FB

    Signature Algorithm: sha1WithRSAEncryption
         13:12:1b:4e:2c:c4:96:a6:d7:88:62:c6:50:0d:49:d1:0f:a8:
         5b:9b:68:42:07:f5:79:b3:5f:e5:d3:f8:e1:4d:f4:f4:4d:51:
         46:98:ce:65:4f:7c:5f:74:5d:56:7a:81:45:68:e3:7b:af:e4:
         02:98:df:4b:c1:06:c1:ab:24:97:24:eb:d1:76:86:f5:05:15:
         0e:b9:81:40:89:3f:85:54:10:00:28:6f:c8:c4:66:61:1b:c6:
         dd:3d:ac:1d:a6:bf:66:50:22:22:30:5e:3b:19:32:c6:f6:cf:
         d5:f7:e8:5e:af:8e:7c:9f:9d:e7:6e:e4:41:85:f7:cc:02:57:
         be:3e
-----BEGIN CERTIFICATE-----
MIIDzTCCAzagAwIBAgIBAzANBgkqhkiG9w0BAQUFADCBpTELMAkGA1UEBhMCQlIx
FzAVBgNVBAgMDlNhbnRhIENhdGFyaW5hMRIwEAYDVQQHDAlKb2ludmlsbGUxEjAQ
BgNVBAoMCUluZm9ybWFudDEUMBIGA1UECwwLRGV2ZWxvcG1lbnQxDzANBgNVBAMM
BnJhZmFlbDEuMCwGCSqGSIb3DQEJARYfcmFmYWVsLmRhbG9zdG9AaW5mb3JtYW50
LmNvbS5icjAeFw0xNDAyMTQxNzQ4MTFaFw0xNTAyMTQxNzQ4MTFaMIGxMQswCQYD
VQQGEwJCUjEXMBUGA1UECAwOU2FudGEgQ2F0YXJpbmExEjAQBgNVBAcMCUpvaW52
aWxsZTESMBAGA1UECgwJSW5mb3JtYW50MRQwEgYDVQQLDAtEZXZlbG9wbWVudDEZ
MBcGA1UEAwwQY2FybG9zLnNjaG5laWRlcjEwMC4GCSqGSIb3DQEJARYhY2FybG9z
LnNjaG5laWRlckBpbmZvcm1hbnQuY29tLmJyMIIBIjANBgkqhkiG9w0BAQEFAAOC
AQ8AMIIBCgKCAQEAvb0BgpTCuMgyDz4oFiDI5Z+PCz+2evDb+AXnWEY2EWZXKqOl
O1lSdoYffyo0Bxvy1OJH2ZR5tn+Cyvno5+lPGC2MMV/laZxUlXgzxxhH889Idf2n
INQ6/R3RL/6hLFSaIYnTTT0Ee0uLjeqzObqoAunZOiqkUNkekGm5DWHHY7h13LFH
GDCrAeZ+moZ4DGfOsErmzXN2+HMYD+EqZhUHjDhCLhsbf/qWIb7etXlkv3uAinsr
dkNOqFMPRmUhr3+xQ1kDWY31kw9k5wkQ4MoZ+Uj57zLBR3gDIYMsWiZVkIH0E6ga
QNc2IHilxgOSR0TQy4qGBnSw8Jq5HruU7bwNfQIDAQABo3sweTAJBgNVHRMEAjAA
MCwGCWCGSAGG+EIBDQQfFh1PcGVuU1NMIEdlbmVyYXRlZCBDZXJ0aWZpY2F0ZTAd
BgNVHQ4EFgQUQDQhQ9UYJpGqFaeQKUJL7ZIapjcwHwYDVR0jBBgwFoAU3ERAjDZA
R9zoZX1Ubwl0SOIjFPswDQYJKoZIhvcNAQEFBQADgYEAExIbTizElqbXiGLGUA1J
0Q+oW5toQgf1ebNf5dP44U309E1RRpjOZU98X3RdVnqBRWjje6/kApjfS8EGwask
lyTr0XaG9QUVDrmBQIk/hVQQAChvyMRmYRvG3T2sHaa/ZlAiIjBeOxkyxvbP1ffo
Xq+OfJ+d527kQYX3zAJXvj4=
-----END CERTIFICATE-----
